; ModuleID = '46/2730.c'
source_filename = "46/2730.c"
target datalayout = "e-m:e-p270:32:32-p271:32:32-p272:64:64-i64:64-f80:128-n8:16:32:64-S128"
target triple = "x86_64-pc-linux-gnu"

@.str = private unnamed_addr constant [5 x i8] c"%d%d\00", align 1
@.str.1 = private unnamed_addr constant [3 x i8] c"%d\00", align 1
@.str.2 = private unnamed_addr constant [4 x i8] c"%d\0A\00", align 1

; Function Attrs: noinline nounwind uwtable
define dso_local i32 @main() #0 {
  %1 = alloca i32, align 4
  %2 = alloca [288 x [288 x i32]], align 16
  %3 = alloca i32, align 4
  %4 = alloca i32, align 4
  %5 = alloca i32, align 4
  %6 = alloca i32, align 4
  %7 = alloca i32, align 4
  %8 = alloca i32, align 4
  %9 = alloca i32, align 4
  store i32 0, i32* %1, align 4
  %10 = call i32 (i8*, ...) @__isoc99_scanf(i8* getelementptr inbounds ([5 x i8], [5 x i8]* @.str, i64 0, i64 0), i32* %3, i32* %4)
  store i32 1, i32* %5, align 4
  br label %11

11:                                               ; preds = %32, %0
  %12 = load i32, i32* %5, align 4
  %13 = load i32, i32* %3, align 4
  %14 = icmp sle i32 %12, %13
  br i1 %14, label %15, label %35

15:                                               ; preds = %11
  store i32 1, i32* %6, align 4
  br label %16

16:                                               ; preds = %28, %15
  %17 = load i32, i32* %6, align 4
  %18 = load i32, i32* %4, align 4
  %19 = icmp sle i32 %17, %18
  br i1 %19, label %20, label %31

20:                                               ; preds = %16
  %21 = load i32, i32* %5, align 4
  %22 = sext i32 %21 to i64
  %23 = getelementptr inbounds [288 x [288 x i32]], [288 x [288 x i32]]* %2, i64 0, i64 %22
  %24 = load i32, i32* %6, align 4
  %25 = sext i32 %24 to i64
  %26 = getelementptr inbounds [288 x i32], [288 x i32]* %23, i64 0, i64 %25
  %27 = call i32 (i8*, ...) @__isoc99_scanf(i8* getelementptr inbounds ([3 x i8], [3 x i8]* @.str.1, i64 0, i64 0), i32* %26)
  br label %28

28:                                               ; preds = %20
  %29 = load i32, i32* %6, align 4
  %30 = add nsw i32 %29, 1
  store i32 %30, i32* %6, align 4
  br label %16

31:                                               ; preds = %16
  br label %32

32:                                               ; preds = %31
  %33 = load i32, i32* %5, align 4
  %34 = add nsw i32 %33, 1
  store i32 %34, i32* %5, align 4
  br label %11

35:                                               ; preds = %11
  %36 = load i32, i32* %3, align 4
  store i32 %36, i32* %8, align 4
  %37 = load i32, i32* %4, align 4
  store i32 %37, i32* %9, align 4
  store i32 1, i32* %5, align 4
  store i32 1, i32* %6, align 4
  br label %38

38:                                               ; preds = %147, %35
  %39 = load i32, i32* %6, align 4
  store i32 %39, i32* %7, align 4
  br label %40

40:                                               ; preds = %53, %38
  %41 = load i32, i32* %7, align 4
  %42 = load i32, i32* %9, align 4
  %43 = icmp sle i32 %41, %42
  br i1 %43, label %44, label %56

44:                                               ; preds = %40
  %45 = load i32, i32* %5, align 4
  %46 = sext i32 %45 to i64
  %47 = getelementptr inbounds [288 x [288 x i32]], [288 x [288 x i32]]* %2, i64 0, i64 %46
  %48 = load i32, i32* %7, align 4
  %49 = sext i32 %48 to i64
  %50 = getelementptr inbounds [288 x i32], [288 x i32]* %47, i64 0, i64 %49
  %51 = load i32, i32* %50, align 4
  %52 = call i32 (i8*, ...) @printf(i8* getelementptr inbounds ([4 x i8], [4 x i8]* @.str.2, i64 0, i64 0), i32 %51)
  br label %53

53:                                               ; preds = %44
  %54 = load i32, i32* %7, align 4
  %55 = add nsw i32 %54, 1
  store i32 %55, i32* %7, align 4
  br label %40

56:                                               ; preds = %40
  %57 = load i32, i32* %5, align 4
  %58 = add nsw i32 %57, 1
  store i32 %58, i32* %5, align 4
  %59 = load i32, i32* %5, align 4
  %60 = load i32, i32* %8, align 4
  %61 = icmp sgt i32 %59, %60
  br i1 %61, label %62, label %63

62:                                               ; preds = %56
  br label %149

63:                                               ; preds = %56
  %64 = load i32, i32* %5, align 4
  store i32 %64, i32* %7, align 4
  br label %65

65:                                               ; preds = %78, %63
  %66 = load i32, i32* %7, align 4
  %67 = load i32, i32* %8, align 4
  %68 = icmp sle i32 %66, %67
  br i1 %68, label %69, label %81

69:                                               ; preds = %65
  %70 = load i32, i32* %7, align 4
  %71 = sext i32 %70 to i64
  %72 = getelementptr inbounds [288 x [288 x i32]], [288 x [288 x i32]]* %2, i64 0, i64 %71
  %73 = load i32, i32* %9, align 4
  %74 = sext i32 %73 to i64
  %75 = getelementptr inbounds [288 x i32], [288 x i32]* %72, i64 0, i64 %74
  %76 = load i32, i32* %75, align 4
  %77 = call i32 (i8*, ...) @printf(i8* getelementptr inbounds ([4 x i8], [4 x i8]* @.str.2, i64 0, i64 0), i32 %76)
  br label %78

78:                                               ; preds = %69
  %79 = load i32, i32* %7, align 4
  %80 = add nsw i32 %79, 1
  store i32 %80, i32* %7, align 4
  br label %65

81:                                               ; preds = %65
  %82 = load i32, i32* %9, align 4
  %83 = sub nsw i32 %82, 1
  store i32 %83, i32* %9, align 4
  %84 = load i32, i32* %9, align 4
  %85 = load i32, i32* %6, align 4
  %86 = icmp slt i32 %84, %85
  br i1 %86, label %87, label %88

87:                                               ; preds = %81
  br label %149

88:                                               ; preds = %81
  %89 = load i32, i32* %9, align 4
  store i32 %89, i32* %7, align 4
  br label %90

90:                                               ; preds = %103, %88
  %91 = load i32, i32* %7, align 4
  %92 = load i32, i32* %6, align 4
  %93 = icmp sge i32 %91, %92
  br i1 %93, label %94, label %106

94:                                               ; preds = %90
  %95 = load i32, i32* %8, align 4
  %96 = sext i32 %95 to i64
  %97 = getelementptr inbounds [288 x [288 x i32]], [288 x [288 x i32]]* %2, i64 0, i64 %96
  %98 = load i32, i32* %7, align 4
  %99 = sext i32 %98 to i64
  %100 = getelementptr inbounds [288 x i32], [288 x i32]* %97, i64 0, i64 %99
  %101 = load i32, i32* %100, align 4
  %102 = call i32 (i8*, ...) @printf(i8* getelementptr inbounds ([4 x i8], [4 x i8]* @.str.2, i64 0, i64 0), i32 %101)
  br label %103

103:                                              ; preds = %94
  %104 = load i32, i32* %7, align 4
  %105 = add nsw i32 %104, -1
  store i32 %105, i32* %7, align 4
  br label %90

106:                                              ; preds = %90
  %107 = load i32, i32* %8, align 4
  %108 = sub nsw i32 %107, 1
  store i32 %108, i32* %8, align 4
  %109 = load i32, i32* %5, align 4
  %110 = load i32, i32* %8, align 4
  %111 = icmp sgt i32 %109, %110
  br i1 %111, label %112, label %113

112:                                              ; preds = %106
  br label %149

113:                                              ; preds = %106
  %114 = load i32, i32* %8, align 4
  store i32 %114, i32* %7, align 4
  br label %115

115:                                              ; preds = %128, %113
  %116 = load i32, i32* %7, align 4
  %117 = load i32, i32* %5, align 4
  %118 = icmp sge i32 %116, %117
  br i1 %118, label %119, label %131

119:                                              ; preds = %115
  %120 = load i32, i32* %7, align 4
  %121 = sext i32 %120 to i64
  %122 = getelementptr inbounds [288 x [288 x i32]], [288 x [288 x i32]]* %2, i64 0, i64 %121
  %123 = load i32, i32* %6, align 4
  %124 = sext i32 %123 to i64
  %125 = getelementptr inbounds [288 x i32], [288 x i32]* %122, i64 0, i64 %124
  %126 = load i32, i32* %125, align 4
  %127 = call i32 (i8*, ...) @printf(i8* getelementptr inbounds ([4 x i8], [4 x i8]* @.str.2, i64 0, i64 0), i32 %126)
  br label %128

128:                                              ; preds = %119
  %129 = load i32, i32* %7, align 4
  %130 = add nsw i32 %129, -1
  store i32 %130, i32* %7, align 4
  br label %115

131:                                              ; preds = %115
  %132 = load i32, i32* %6, align 4
  %133 = add nsw i32 %132, 1
  store i32 %133, i32* %6, align 4
  %134 = load i32, i32* %9, align 4
  %135 = load i32, i32* %6, align 4
  %136 = icmp slt i32 %134, %135
  br i1 %136, label %137, label %138

137:                                              ; preds = %131
  br label %149

138:                                              ; preds = %131
  br label %139

139:                                              ; preds = %138
  %140 = load i32, i32* %5, align 4
  %141 = load i32, i32* %8, align 4
  %142 = icmp sle i32 %140, %141
  br i1 %142, label %143, label %147

143:                                              ; preds = %139
  %144 = load i32, i32* %6, align 4
  %145 = load i32, i32* %9, align 4
  %146 = icmp sle i32 %144, %145
  br label %147

147:                                              ; preds = %143, %139
  %148 = phi i1 [ false, %139 ], [ %146, %143 ]
  br i1 %148, label %38, label %149

149:                                              ; preds = %147, %137, %112, %87, %62
  %150 = load i32, i32* %1, align 4
  ret i32 %150
}

declare dso_local i32 @__isoc99_scanf(i8*, ...) #1

declare dso_local i32 @printf(i8*, ...) #1


!llvm.module.flags = !{!0}
!llvm.ident = !{!1}

!0 = !{i32 1, !"wchar_size", i32 4}
!1 = !{!"clang version 10.0.0-4ubuntu1 "}
